target datalayout = "e-m:e-p270:32:32-p271:32:32-p272:64:64-i64:64-i128:128-f80:128-n8:16:32:64-S128"
target triple = "x86_64-pc-linux-gnu"

%struct.AVCodecGuid = type { i32, [16 x i8] }

; Function Attrs: nounwind uwtable
define ptr @ff_get_codec_guid(i32 noundef %0, ptr noundef %1) #0 {
  %3 = alloca ptr, align 8
  %4 = alloca i32, align 4
  %5 = alloca ptr, align 8
  %6 = alloca i32, align 4
  %7 = alloca i32, align 4
  store i32 %0, ptr %4, align 4, !tbaa !18
  store ptr %1, ptr %5, align 8, !tbaa !52
  call void @llvm.lifetime.start.p0(i64 4, ptr %6) #7
  store i32 0, ptr %6, align 4, !tbaa !18
  br label %8

8:                                                ; preds = %32, %2
  %9 = load ptr, ptr %5, align 8, !tbaa !52
  %10 = load i32, ptr %6, align 4, !tbaa !18
  %11 = sext i32 %10 to i64
  %12 = getelementptr inbounds %struct.AVCodecGuid, ptr %9, i64 %11
  %13 = getelementptr inbounds nuw %struct.AVCodecGuid, ptr %12, i32 0, i32 0
  %14 = load i32, ptr %13, align 4, !tbaa !54
  %15 = icmp ne i32 %14, 0
  br i1 %15, label %16, label %35

16:                                               ; preds = %8
  %17 = load i32, ptr %4, align 4, !tbaa !18
  %18 = load ptr, ptr %5, align 8, !tbaa !52
  %19 = load i32, ptr %6, align 4, !tbaa !18
  %20 = sext i32 %19 to i64
  %21 = getelementptr inbounds %struct.AVCodecGuid, ptr %18, i64 %20
  %22 = getelementptr inbounds nuw %struct.AVCodecGuid, ptr %21, i32 0, i32 0
  %23 = load i32, ptr %22, align 4, !tbaa !54
  %24 = icmp eq i32 %17, %23
  br i1 %24, label %25, label %31

25:                                               ; preds = %16
  %26 = load ptr, ptr %5, align 8, !tbaa !52
  %27 = load i32, ptr %6, align 4, !tbaa !18
  %28 = sext i32 %27 to i64
  %29 = getelementptr inbounds %struct.AVCodecGuid, ptr %26, i64 %28
  %30 = getelementptr inbounds nuw %struct.AVCodecGuid, ptr %29, i32 0, i32 1
  store ptr %30, ptr %3, align 8
  store i32 1, ptr %7, align 4
  br label %36

31:                                               ; preds = %16
  br label %32

32:                                               ; preds = %31
  %33 = load i32, ptr %6, align 4, !tbaa !18
  %34 = add nsw i32 %33, 1
  store i32 %34, ptr %6, align 4, !tbaa !18
  br label %8, !llvm.loop !56

35:                                               ; preds = %8
  store ptr null, ptr %3, align 8
  store i32 1, ptr %7, align 4
  br label %36

36:                                               ; preds = %35, %25
  call void @llvm.lifetime.end.p0(i64 4, ptr %6) #7
  %37 = load ptr, ptr %3, align 8
  ret ptr %37
}