; Function Attrs: nofree norecurse nosync nounwind memory(argmem: read) uwtable
define ptr @ff_get_codec_guid(i32 noundef %0, ptr noundef readonly captures(ret: address, provenance) %1) local_unnamed_addr #5 {
  %3 = load i32, ptr %1, align 4, !tbaa !42
  %.not11 = icmp eq i32 %3, 0
  br i1 %.not11, label %.loopexit, label %.lr.ph

4:                                                ; preds = %.lr.ph
  %indvars.iv.next = add nuw nsw i64 %indvars.iv, 1
  %5 = getelementptr inbounds nuw %struct.AVCodecGuid, ptr %1, i64 %indvars.iv.next
  %6 = load i32, ptr %5, align 4, !tbaa !42
  %.not = icmp eq i32 %6, 0
  br i1 %.not, label %.loopexit, label %.lr.ph, !llvm.loop !44

.lr.ph:                                           ; preds = %2, %4
  %indvars.iv = phi i64 [ %indvars.iv.next, %4 ], [ 0, %2 ]
  %7 = phi i32 [ %6, %4 ], [ %3, %2 ]
  %8 = icmp eq i32 %0, %7
  br i1 %8, label %9, label %4

9:                                                ; preds = %.lr.ph
  %10 = getelementptr inbounds nuw %struct.AVCodecGuid, ptr %1, i64 %indvars.iv, i32 1
  br label %.loopexit

.loopexit:                                        ; preds = %4, %2, %9
  %.08 = phi ptr [ %10, %9 ], [ null, %2 ], [ null, %4 ]
  ret ptr %.08
}